; Function Attrs: mustprogress nofree norecurse nosync nounwind willreturn memory(read, inaccessiblemem: none) uwtable
define hidden noundef zeroext i1 @_ZNK19OpenColorIO_v2_5dev11Lut3DOpData15haveEqualBasicsERKS0_(ptr noundef nonnull readonly align 8 dereferenceable(232) %0, ptr noundef nonnull readonly align 8 dereferenceable(232) %1) local_unnamed_addr #16 align 2 {
  %3 = icmp eq ptr %0, %1
  br i1 %3, label %_ZNK19OpenColorIO_v2_5dev6ArrayTIfEeqERKS1_.exit, label %4

4:                                                ; preds = %2
  %5 = getelementptr inbounds nuw i8, ptr %0, i64 184
  %6 = load i64, ptr %5, align 8, !tbaa !98
  %7 = getelementptr inbounds nuw i8, ptr %1, i64 184
  %8 = load i64, ptr %7, align 8, !tbaa !98
  %9 = icmp eq i64 %6, %8
  br i1 %9, label %10, label %_ZNK19OpenColorIO_v2_5dev6ArrayTIfEeqERKS1_.exit

10:                                               ; preds = %4
  %11 = getelementptr inbounds nuw i8, ptr %0, i64 192
  %12 = load i64, ptr %11, align 8, !tbaa !99
  %13 = getelementptr inbounds nuw i8, ptr %1, i64 192
  %14 = load i64, ptr %13, align 8, !tbaa !99
  %15 = icmp eq i64 %12, %14
  br i1 %15, label %16, label %_ZNK19OpenColorIO_v2_5dev6ArrayTIfEeqERKS1_.exit

16:                                               ; preds = %10
  %17 = getelementptr inbounds nuw i8, ptr %0, i64 200
  %18 = getelementptr inbounds nuw i8, ptr %1, i64 200
  %19 = getelementptr inbounds nuw i8, ptr %0, i64 208
  %20 = load ptr, ptr %19, align 8, !tbaa !100
  %21 = load ptr, ptr %17, align 8, !tbaa !81
  %22 = ptrtoint ptr %20 to i64
  %23 = ptrtoint ptr %21 to i64
  %24 = sub i64 %22, %23
  %25 = getelementptr inbounds nuw i8, ptr %1, i64 208
  %26 = load ptr, ptr %25, align 8, !tbaa !100
  %27 = load ptr, ptr %18, align 8, !tbaa !81
  %28 = ptrtoint ptr %26 to i64
  %29 = ptrtoint ptr %27 to i64
  %30 = sub i64 %28, %29
  %31 = icmp eq i64 %24, %30
  br i1 %31, label %32, label %_ZNK19OpenColorIO_v2_5dev6ArrayTIfEeqERKS1_.exit

32:                                               ; preds = %16
  %.not9.i.i.i.i.i.i = icmp eq ptr %21, %20
  br i1 %.not9.i.i.i.i.i.i, label %_ZNK19OpenColorIO_v2_5dev6ArrayTIfEeqERKS1_.exit, label %.lr.ph.i.i.i.i.i.i

.lr.ph.i.i.i.i.i.i:                               ; preds = %32, %.lr.ph.i.i.i.i.i.i
  %.011.i.i.i.i.i.i = phi ptr [ %37, %.lr.ph.i.i.i.i.i.i ], [ %27, %32 ]
  %.0810.i.i.i.i.i.i = phi ptr [ %36, %.lr.ph.i.i.i.i.i.i ], [ %21, %32 ]
  %33 = load float, ptr %.0810.i.i.i.i.i.i, align 4, !tbaa !92
  %34 = load float, ptr %.011.i.i.i.i.i.i, align 4, !tbaa !92
  %35 = fcmp oeq float %33, %34
  %36 = getelementptr inbounds nuw i8, ptr %.0810.i.i.i.i.i.i, i64 4
  %37 = getelementptr inbounds nuw i8, ptr %.011.i.i.i.i.i.i, i64 4
  %.not.i.i.i.i.i.i = icmp ne ptr %36, %20
  %or.cond.not = select i1 %35, i1 %.not.i.i.i.i.i.i, i1 false
  br i1 %or.cond.not, label %.lr.ph.i.i.i.i.i.i, label %_ZNK19OpenColorIO_v2_5dev6ArrayTIfEeqERKS1_.exit, !llvm.loop !111

_ZNK19OpenColorIO_v2_5dev6ArrayTIfEeqERKS1_.exit: ; preds = %.lr.ph.i.i.i.i.i.i, %2, %4, %10, %16, %32
  %.0.i = phi i1 [ true, %2 ], [ false, %10 ], [ false, %4 ], [ false, %16 ], [ true, %32 ], [ %35, %.lr.ph.i.i.i.i.i.i ]
  ret i1 %.0.i
}